target datalayout = "e-m:e-p270:32:32-p271:32:32-p272:64:64-i64:64-i128:128-f80:128-n8:16:32:64-S128"
target triple = "x86_64-pc-linux-gnu"

%struct.rb_data_type_struct = type { ptr, %struct.anon, ptr, ptr, i64 }
%struct.anon = type { ptr, ptr, ptr, ptr, [1 x ptr] }
%struct.anon.0 = type { i8, i8 }
%struct.rb_random_mt_t = type { %struct.rb_random_struct, %struct.MT }
%struct.rb_random_struct = type { i64 }
%struct.MT = type { [624 x i32], ptr, i32 }
%struct.rb_random_interface_t = type { i64, %struct.anon.0, i16, ptr, ptr, ptr, ptr, ptr }
%struct.RBasic = type { i64, i64 }
%struct.RTypedData = type { %struct.RBasic, ptr, i64, ptr }

@default_rand_key = internal global ptr null, align 8
@id_rand = internal global i64 0, align 8
@rb_eRangeError = external global i64, align 8
@.str.3 = private unnamed_addr constant [28 x i8] c"random number too small %ld\00", align 1
@.str.4 = private unnamed_addr constant [26 x i8] c"random number too big %ld\00", align 1
@random_mt_if = internal constant { i64, %struct.anon.0, i16, [4 x i8], ptr, ptr, ptr, ptr, ptr } { i64 128, %struct.anon.0 { i8 1, i8 0 }, i16 0, [4 x i8] zeroinitializer, ptr @rand_mt_init, ptr @rand_mt_init_int32, ptr @rand_mt_get_int32, ptr @rand_mt_get_bytes, ptr null }, align 8

; Function Attrs: inlinehint nounwind sspstrong willreturn memory(none) uwtable
define internal i64 @rbimpl_fix2long_by_idiv(i64 noundef %0) #8 {
  %2 = alloca i64, align 8
  %3 = alloca i64, align 8
  %4 = alloca i64, align 8
  %5 = alloca i64, align 8
  store i64 %0, ptr %2, align 8, !tbaa !26
  call void @llvm.lifetime.start.p0(i64 8, ptr %3) #24
  %6 = load i64, ptr %2, align 8, !tbaa !26
  %7 = sub i64 %6, 1
  store i64 %7, ptr %3, align 8, !tbaa !26
  call void @llvm.lifetime.start.p0(i64 8, ptr %4) #24
  %8 = load i64, ptr %3, align 8, !tbaa !26
  %9 = sdiv i64 %8, 2
  store i64 %9, ptr %4, align 8, !tbaa !26
  call void @llvm.lifetime.start.p0(i64 8, ptr %5) #24
  %10 = load i64, ptr %4, align 8, !tbaa !26
  store i64 %10, ptr %5, align 8, !tbaa !26
  %11 = load i64, ptr %5, align 8, !tbaa !26
  call void @llvm.lifetime.end.p0(i64 8, ptr %5) #24
  call void @llvm.lifetime.end.p0(i64 8, ptr %4) #24
  call void @llvm.lifetime.end.p0(i64 8, ptr %3) #24
  ret i64 %11
}

; Function Attrs: inlinehint nounwind sspstrong willreturn memory(none) uwtable
define internal i64 @rbimpl_fix2long_by_shift(i64 noundef %0) #8 {
  %2 = alloca i64, align 8
  %3 = alloca i64, align 8
  %4 = alloca i64, align 8
  %5 = alloca i64, align 8
  store i64 %0, ptr %2, align 8, !tbaa !26
  call void @llvm.lifetime.start.p0(i64 8, ptr %3) #24
  %6 = load i64, ptr %2, align 8, !tbaa !26
  store i64 %6, ptr %3, align 8, !tbaa !26
  call void @llvm.lifetime.start.p0(i64 8, ptr %4) #24
  %7 = load i64, ptr %3, align 8, !tbaa !26
  %8 = ashr i64 %7, 1
  store i64 %8, ptr %4, align 8, !tbaa !26
  call void @llvm.lifetime.start.p0(i64 8, ptr %5) #24
  %9 = load i64, ptr %4, align 8, !tbaa !26
  store i64 %9, ptr %5, align 8, !tbaa !26
  %10 = load i64, ptr %5, align 8, !tbaa !26
  call void @llvm.lifetime.end.p0(i64 8, ptr %5) #24
  call void @llvm.lifetime.end.p0(i64 8, ptr %4) #24
  call void @llvm.lifetime.end.p0(i64 8, ptr %3) #24
  ret i64 %10
}

; Function Attrs: inlinehint nounwind sspstrong willreturn memory(none) uwtable
define internal zeroext i1 @rbimpl_right_shift_is_arithmetic_p() #8 {
  ret i1 true
}

; Function Attrs: inlinehint nounwind sspstrong willreturn memory(read) uwtable
define internal ptr @RTYPEDDATA_TYPE(i64 noundef %0) #6 {
  %2 = alloca i64, align 8
  store i64 %0, ptr %2, align 8, !tbaa !26
  %3 = load i64, ptr %2, align 8, !tbaa !26
  %4 = inttoptr i64 %3 to ptr
  %5 = getelementptr inbounds nuw %struct.RTypedData, ptr %4, i32 0, i32 1
  %6 = load ptr, ptr %5, align 8, !tbaa !86
  ret ptr %6
}

; Function Attrs: inlinehint nounwind sspstrong willreturn memory(none) uwtable
define internal i64 @rb_fix2long(i64 noundef %0) #8 {
  %2 = alloca i64, align 8
  %3 = alloca i64, align 8
  store i64 %0, ptr %3, align 8, !tbaa !26
  %4 = call zeroext i1 @rbimpl_right_shift_is_arithmetic_p() #28
  br i1 %4, label %5, label %8

5:                                                ; preds = %1
  %6 = load i64, ptr %3, align 8, !tbaa !26
  %7 = call i64 @rbimpl_fix2long_by_shift(i64 noundef %6) #28
  store i64 %7, ptr %2, align 8
  br label %11

8:                                                ; preds = %1
  %9 = load i64, ptr %3, align 8, !tbaa !26
  %10 = call i64 @rbimpl_fix2long_by_idiv(i64 noundef %9) #28
  store i64 %10, ptr %2, align 8
  br label %11

11:                                               ; preds = %8, %5
  %12 = load i64, ptr %2, align 8
  ret i64 %12
}

; Function Attrs: inlinehint nounwind sspstrong willreturn memory(none) uwtable
define internal i64 @RB_INT2FIX(i64 noundef %0) #8 {
  %2 = alloca i64, align 8
  %3 = alloca i64, align 8
  %4 = alloca i64, align 8
  %5 = alloca i64, align 8
  %6 = alloca i64, align 8
  %7 = alloca i64, align 8
  store i64 %0, ptr %2, align 8, !tbaa !26
  call void @llvm.lifetime.start.p0(i64 8, ptr %3) #24
  %8 = load i64, ptr %2, align 8, !tbaa !26
  store i64 %8, ptr %3, align 8, !tbaa !26
  call void @llvm.lifetime.start.p0(i64 8, ptr %4) #24
  %9 = load i64, ptr %3, align 8, !tbaa !26
  %10 = shl i64 %9, 1
  %11 = add i64 %10, 1
  store i64 %11, ptr %4, align 8, !tbaa !26
  call void @llvm.lifetime.start.p0(i64 8, ptr %5) #24
  %12 = load i64, ptr %4, align 8, !tbaa !26
  store i64 %12, ptr %5, align 8, !tbaa !26
  call void @llvm.lifetime.start.p0(i64 8, ptr %6) #24
  %13 = load i64, ptr %5, align 8, !tbaa !26
  store i64 %13, ptr %6, align 8, !tbaa !26
  call void @llvm.lifetime.start.p0(i64 8, ptr %7) #24
  %14 = load i64, ptr %6, align 8, !tbaa !26
  store i64 %14, ptr %7, align 8, !tbaa !26
  %15 = load i64, ptr %7, align 8, !tbaa !26
  call void @llvm.lifetime.end.p0(i64 8, ptr %7) #24
  call void @llvm.lifetime.end.p0(i64 8, ptr %6) #24
  call void @llvm.lifetime.end.p0(i64 8, ptr %5) #24
  call void @llvm.lifetime.end.p0(i64 8, ptr %4) #24
  call void @llvm.lifetime.end.p0(i64 8, ptr %3) #24
  ret i64 %15
}

; Function Attrs: nounwind sspstrong uwtable
define internal i64 @make_mask(i64 noundef %0) #0 {
  %2 = alloca i64, align 8
  store i64 %0, ptr %2, align 8, !tbaa !26
  %3 = load i64, ptr %2, align 8, !tbaa !26
  %4 = load i64, ptr %2, align 8, !tbaa !26
  %5 = lshr i64 %4, 1
  %6 = or i64 %3, %5
  store i64 %6, ptr %2, align 8, !tbaa !26
  %7 = load i64, ptr %2, align 8, !tbaa !26
  %8 = load i64, ptr %2, align 8, !tbaa !26
  %9 = lshr i64 %8, 2
  %10 = or i64 %7, %9
  store i64 %10, ptr %2, align 8, !tbaa !26
  %11 = load i64, ptr %2, align 8, !tbaa !26
  %12 = load i64, ptr %2, align 8, !tbaa !26
  %13 = lshr i64 %12, 4
  %14 = or i64 %11, %13
  store i64 %14, ptr %2, align 8, !tbaa !26
  %15 = load i64, ptr %2, align 8, !tbaa !26
  %16 = load i64, ptr %2, align 8, !tbaa !26
  %17 = lshr i64 %16, 8
  %18 = or i64 %15, %17
  store i64 %18, ptr %2, align 8, !tbaa !26
  %19 = load i64, ptr %2, align 8, !tbaa !26
  %20 = load i64, ptr %2, align 8, !tbaa !26
  %21 = lshr i64 %20, 16
  %22 = or i64 %19, %21
  store i64 %22, ptr %2, align 8, !tbaa !26
  %23 = load i64, ptr %2, align 8, !tbaa !26
  %24 = load i64, ptr %2, align 8, !tbaa !26
  %25 = lshr i64 %24, 32
  %26 = or i64 %23, %25
  store i64 %26, ptr %2, align 8, !tbaa !26
  %27 = load i64, ptr %2, align 8, !tbaa !26
  ret i64 %27
}

; Function Attrs: inlinehint nounwind sspstrong willreturn memory(read) uwtable
define internal ptr @rb_rand_if(i64 noundef %0) #6 {
  %2 = alloca i64, align 8
  %3 = alloca ptr, align 8
  %4 = alloca ptr, align 8
  store i64 %0, ptr %2, align 8, !tbaa !26
  call void @llvm.lifetime.start.p0(i64 8, ptr %3) #24
  %5 = load i64, ptr %2, align 8, !tbaa !26
  %6 = call ptr @RTYPEDDATA_TYPE(i64 noundef %5) #26
  store ptr %6, ptr %3, align 8, !tbaa !93
  call void @llvm.lifetime.start.p0(i64 8, ptr %4) #24
  %7 = load ptr, ptr %3, align 8, !tbaa !93
  %8 = getelementptr inbounds nuw %struct.rb_data_type_struct, ptr %7, i32 0, i32 3
  %9 = load ptr, ptr %8, align 8, !tbaa !94
  store ptr %9, ptr %4, align 8, !tbaa !20
  %10 = load ptr, ptr %4, align 8, !tbaa !20
  call void @llvm.lifetime.end.p0(i64 8, ptr %4) #24
  call void @llvm.lifetime.end.p0(i64 8, ptr %3) #24
  ret ptr %10
}

; Function Attrs: nounwind sspstrong uwtable
define internal ptr @default_rand() #0 {
  %1 = alloca ptr, align 8
  call void @llvm.lifetime.start.p0(i64 8, ptr %1) #24
  %2 = load ptr, ptr @default_rand_key, align 8, !tbaa !7
  %3 = call ptr @rb_ractor_local_storage_ptr(ptr noundef %2)
  store ptr %3, ptr %1, align 8, !tbaa !20
  %4 = icmp eq ptr %3, null
  br i1 %4, label %5, label %9

5:                                                ; preds = %0
  %6 = call noalias nonnull ptr @ruby_xcalloc(i64 noundef 1, i64 noundef 2520) #29
  store ptr %6, ptr %1, align 8, !tbaa !20
  %7 = load ptr, ptr @default_rand_key, align 8, !tbaa !7
  %8 = load ptr, ptr %1, align 8, !tbaa !20
  call void @rb_ractor_local_storage_ptr_set(ptr noundef %7, ptr noundef %8)
  br label %9

9:                                                ; preds = %5, %0
  %10 = load ptr, ptr %1, align 8, !tbaa !20
  call void @llvm.lifetime.end.p0(i64 8, ptr %1) #24
  ret ptr %10
}

; Function Attrs: inlinehint nounwind sspstrong willreturn memory(none) uwtable
define internal i64 @rb_fix2ulong(i64 noundef %0) #8 {
  %2 = alloca i64, align 8
  store i64 %0, ptr %2, align 8, !tbaa !26
  %3 = load i64, ptr %2, align 8, !tbaa !26
  %4 = call i64 @rb_fix2long(i64 noundef %3) #28
  ret i64 %4
}

; Function Attrs: inlinehint nounwind sspstrong willreturn memory(none) uwtable
define internal zeroext i1 @RB_FIXNUM_P(i64 noundef %0) #8 {
  %2 = alloca i64, align 8
  store i64 %0, ptr %2, align 8, !tbaa !26
  %3 = load i64, ptr %2, align 8, !tbaa !26
  %4 = and i64 %3, 1
  %5 = icmp ne i64 %4, 0
  ret i1 %5
}

; Function Attrs: inlinehint nounwind sspstrong uwtable
define internal i64 @rb_ull2num_inline(i64 noundef %0) #4 {
  %2 = alloca i64, align 8
  %3 = alloca i64, align 8
  store i64 %0, ptr %3, align 8, !tbaa !95
  %4 = load i64, ptr %3, align 8, !tbaa !95
  %5 = icmp ult i64 %4, 4611686018427387904
  br i1 %5, label %6, label %9

6:                                                ; preds = %1
  %7 = load i64, ptr %3, align 8, !tbaa !95
  %8 = call i64 @RB_INT2FIX(i64 noundef %7) #28
  store i64 %8, ptr %2, align 8
  br label %12

9:                                                ; preds = %1
  %10 = load i64, ptr %3, align 8, !tbaa !95
  %11 = call i64 @rb_ull2inum(i64 noundef %10)
  store i64 %11, ptr %2, align 8
  br label %12

12:                                               ; preds = %9, %6
  %13 = load i64, ptr %2, align 8
  ret i64 %13
}

; Function Attrs: nounwind sspstrong uwtable
define internal i64 @limited_rand(ptr noundef %0, ptr noundef %1, i64 noundef %2) #0 {
  %4 = alloca i64, align 8
  %5 = alloca ptr, align 8
  %6 = alloca ptr, align 8
  %7 = alloca i64, align 8
  %8 = alloca i64, align 8
  %9 = alloca i64, align 8
  %10 = alloca i32, align 4
  %11 = alloca i32, align 4
  store ptr %0, ptr %5, align 8, !tbaa !20
  store ptr %1, ptr %6, align 8, !tbaa !24
  store i64 %2, ptr %7, align 8, !tbaa !26
  call void @llvm.lifetime.start.p0(i64 8, ptr %8) #24
  call void @llvm.lifetime.start.p0(i64 8, ptr %9) #24
  %12 = load i64, ptr %7, align 8, !tbaa !26
  %13 = icmp ne i64 %12, 0
  br i1 %13, label %15, label %14

14:                                               ; preds = %3
  store i64 0, ptr %4, align 8
  store i32 1, ptr %10, align 4
  br label %76

15:                                               ; preds = %3
  %16 = load i64, ptr %7, align 8, !tbaa !26
  %17 = call i64 @make_mask(i64 noundef %16)
  store i64 %17, ptr %9, align 8, !tbaa !26
  %18 = load i64, ptr %7, align 8, !tbaa !26
  %19 = icmp ult i64 4294967295, %18
  br i1 %19, label %20, label %60

20:                                               ; preds = %15
  call void @llvm.lifetime.start.p0(i64 4, ptr %11) #24
  br label %21

21:                                               ; preds = %52, %20
  store i64 0, ptr %8, align 8, !tbaa !26
  store i32 1, ptr %11, align 4, !tbaa !19
  br label %22

22:                                               ; preds = %55, %21
  %23 = load i32, ptr %11, align 4, !tbaa !19
  %24 = icmp sle i32 0, %23
  br i1 %24, label %25, label %58

25:                                               ; preds = %22
  %26 = load i64, ptr %9, align 8, !tbaa !26
  %27 = load i32, ptr %11, align 4, !tbaa !19
  %28 = mul i32 %27, 32
  %29 = zext i32 %28 to i64
  %30 = lshr i64 %26, %29
  %31 = and i64 %30, 4294967295
  %32 = icmp ne i64 %31, 0
  br i1 %32, label %33, label %54

33:                                               ; preds = %25
  %34 = load ptr, ptr %5, align 8, !tbaa !20
  %35 = getelementptr inbounds nuw %struct.rb_random_interface_t, ptr %34, i32 0, i32 5
  %36 = load ptr, ptr %35, align 8, !tbaa !32
  %37 = load ptr, ptr %6, align 8, !tbaa !24
  %38 = call i32 %36(ptr noundef %37)
  %39 = zext i32 %38 to i64
  %40 = load i32, ptr %11, align 4, !tbaa !19
  %41 = mul i32 %40, 32
  %42 = zext i32 %41 to i64
  %43 = shl i64 %39, %42
  %44 = load i64, ptr %8, align 8, !tbaa !26
  %45 = or i64 %44, %43
  store i64 %45, ptr %8, align 8, !tbaa !26
  %46 = load i64, ptr %9, align 8, !tbaa !26
  %47 = load i64, ptr %8, align 8, !tbaa !26
  %48 = and i64 %47, %46
  store i64 %48, ptr %8, align 8, !tbaa !26
  %49 = load i64, ptr %7, align 8, !tbaa !26
  %50 = load i64, ptr %8, align 8, !tbaa !26
  %51 = icmp ult i64 %49, %50
  br i1 %51, label %52, label %53

52:                                               ; preds = %33
  br label %21

53:                                               ; preds = %33
  br label %54

54:                                               ; preds = %53, %25
  br label %55

55:                                               ; preds = %54
  %56 = load i32, ptr %11, align 4, !tbaa !19
  %57 = add i32 %56, -1
  store i32 %57, ptr %11, align 4, !tbaa !19
  br label %22, !llvm.loop !36

58:                                               ; preds = %22
  %59 = load i64, ptr %8, align 8, !tbaa !26
  store i64 %59, ptr %4, align 8
  store i32 1, ptr %10, align 4
  call void @llvm.lifetime.end.p0(i64 4, ptr %11) #24
  br label %76

60:                                               ; preds = %15
  br label %61

61:                                               ; preds = %70, %60
  %62 = load ptr, ptr %5, align 8, !tbaa !20
  %63 = getelementptr inbounds nuw %struct.rb_random_interface_t, ptr %62, i32 0, i32 5
  %64 = load ptr, ptr %63, align 8, !tbaa !32
  %65 = load ptr, ptr %6, align 8, !tbaa !24
  %66 = call i32 %64(ptr noundef %65)
  %67 = zext i32 %66 to i64
  %68 = load i64, ptr %9, align 8, !tbaa !26
  %69 = and i64 %67, %68
  store i64 %69, ptr %8, align 8, !tbaa !26
  br label %70

70:                                               ; preds = %61
  %71 = load i64, ptr %7, align 8, !tbaa !26
  %72 = load i64, ptr %8, align 8, !tbaa !26
  %73 = icmp ult i64 %71, %72
  br i1 %73, label %61, label %74, !llvm.loop !37

74:                                               ; preds = %70
  %75 = load i64, ptr %8, align 8, !tbaa !26
  store i64 %75, ptr %4, align 8
  store i32 1, ptr %10, align 4
  br label %76

76:                                               ; preds = %74, %58, %14
  call void @llvm.lifetime.end.p0(i64 8, ptr %9) #24
  call void @llvm.lifetime.end.p0(i64 8, ptr %8) #24
  %77 = load i64, ptr %4, align 8
  ret i64 %77
}

; Function Attrs: nounwind sspstrong uwtable
define internal ptr @try_rand_if(i64 noundef %0, ptr noundef %1) #0 {
  %3 = alloca ptr, align 8
  %4 = alloca i64, align 8
  %5 = alloca ptr, align 8
  store i64 %0, ptr %4, align 8, !tbaa !26
  store ptr %1, ptr %5, align 8, !tbaa !24
  %6 = load ptr, ptr %5, align 8, !tbaa !24
  %7 = call ptr @default_rand()
  %8 = getelementptr inbounds nuw %struct.rb_random_mt_t, ptr %7, i32 0, i32 0
  %9 = icmp eq ptr %6, %8
  br i1 %9, label %10, label %11

10:                                               ; preds = %2
  store ptr @random_mt_if, ptr %3, align 8
  br label %14

11:                                               ; preds = %2
  %12 = load i64, ptr %4, align 8, !tbaa !26
  %13 = call ptr @rb_rand_if(i64 noundef %12) #26
  store ptr %13, ptr %3, align 8
  br label %14

14:                                               ; preds = %11, %10
  %15 = load ptr, ptr %3, align 8
  ret ptr %15
}

; Function Attrs: inlinehint nounwind sspstrong uwtable
define internal i64 @rb_num2ulong_inline(i64 noundef %0) #4 {
  %2 = alloca i64, align 8
  %3 = alloca i64, align 8
  store i64 %0, ptr %3, align 8, !tbaa !26
  %4 = load i64, ptr %3, align 8, !tbaa !26
  %5 = call zeroext i1 @RB_FIXNUM_P(i64 noundef %4) #28
  br i1 %5, label %6, label %9

6:                                                ; preds = %1
  %7 = load i64, ptr %3, align 8, !tbaa !26
  %8 = call i64 @rb_fix2ulong(i64 noundef %7) #28
  store i64 %8, ptr %2, align 8
  br label %12

9:                                                ; preds = %1
  %10 = load i64, ptr %3, align 8, !tbaa !26
  %11 = call i64 @rb_num2ulong(i64 noundef %10)
  store i64 %11, ptr %2, align 8
  br label %12

12:                                               ; preds = %9, %6
  %13 = load i64, ptr %2, align 8
  ret i64 %13
}

; Function Attrs: inlinehint nounwind sspstrong uwtable
define internal i64 @ulong_to_num_plus_1(i64 noundef %0) #4 {
  %2 = alloca i64, align 8
  store i64 %0, ptr %2, align 8, !tbaa !26
  %3 = load i64, ptr %2, align 8, !tbaa !26
  %4 = add i64 %3, 1
  %5 = call i64 @rb_ull2num_inline(i64 noundef %4)
  ret i64 %5
}

; Function Attrs: nounwind sspstrong uwtable
define dso_local i64 @rb_random_ulong_limited(i64 noundef %0, i64 noundef %1) #0 {
  %3 = alloca i64, align 8
  %4 = alloca i64, align 8
  %5 = alloca i64, align 8
  %6 = alloca ptr, align 8
  %7 = alloca i64, align 8
  %8 = alloca i64, align 8
  %9 = alloca i64, align 8
  %10 = alloca i32, align 4
  store i64 %0, ptr %4, align 8, !tbaa !26
  store i64 %1, ptr %5, align 8, !tbaa !26
  call void @llvm.lifetime.start.p0(i64 8, ptr %6) #24
  %11 = load i64, ptr %4, align 8, !tbaa !26
  %12 = call ptr @try_get_rnd(i64 noundef %11)
  store ptr %12, ptr %6, align 8, !tbaa !24
  %13 = load ptr, ptr %6, align 8, !tbaa !24
  %14 = icmp ne ptr %13, null
  br i1 %14, label %39, label %15

15:                                               ; preds = %2
  call void @llvm.lifetime.start.p0(i64 8, ptr %7) #24
  %16 = load i64, ptr %5, align 8, !tbaa !26
  %17 = call i64 @ulong_to_num_plus_1(i64 noundef %16)
  store i64 %17, ptr %7, align 8, !tbaa !26
  call void @llvm.lifetime.start.p0(i64 8, ptr %8) #24
  %18 = load i64, ptr %4, align 8, !tbaa !26
  %19 = load i64, ptr @id_rand, align 8, !tbaa !26
  %20 = call i64 @rb_funcallv_public(i64 noundef %18, i64 noundef %19, i32 noundef 1, ptr noundef %7)
  %21 = call i64 @rb_to_int(i64 noundef %20)
  store i64 %21, ptr %8, align 8, !tbaa !26
  call void @llvm.lifetime.start.p0(i64 8, ptr %9) #24
  %22 = load i64, ptr %8, align 8, !tbaa !26
  %23 = call i64 @rb_num2ulong_inline(i64 noundef %22)
  store i64 %23, ptr %9, align 8, !tbaa !26
  %24 = load i64, ptr %8, align 8, !tbaa !26
  %25 = call i32 @rb_num_negative_p(i64 noundef %24)
  %26 = icmp ne i32 %25, 0
  br i1 %26, label %27, label %30

27:                                               ; preds = %15
  %28 = load i64, ptr @rb_eRangeError, align 8, !tbaa !26
  %29 = load i64, ptr %9, align 8, !tbaa !26
  call void (i64, ptr, ...) @rb_raise(i64 noundef %28, ptr noundef @.str.3, i64 noundef %29) #27
  unreachable

30:                                               ; preds = %15
  %31 = load i64, ptr %9, align 8, !tbaa !26
  %32 = load i64, ptr %5, align 8, !tbaa !26
  %33 = icmp ugt i64 %31, %32
  br i1 %33, label %34, label %37

34:                                               ; preds = %30
  %35 = load i64, ptr @rb_eRangeError, align 8, !tbaa !26
  %36 = load i64, ptr %9, align 8, !tbaa !26
  call void (i64, ptr, ...) @rb_raise(i64 noundef %35, ptr noundef @.str.4, i64 noundef %36) #27
  unreachable

37:                                               ; preds = %30
  %38 = load i64, ptr %9, align 8, !tbaa !26
  store i64 %38, ptr %3, align 8
  store i32 1, ptr %10, align 4
  call void @llvm.lifetime.end.p0(i64 8, ptr %9) #24
  call void @llvm.lifetime.end.p0(i64 8, ptr %8) #24
  call void @llvm.lifetime.end.p0(i64 8, ptr %7) #24
  br label %46

39:                                               ; preds = %2
  %40 = load i64, ptr %4, align 8, !tbaa !26
  %41 = load ptr, ptr %6, align 8, !tbaa !24
  %42 = call ptr @try_rand_if(i64 noundef %40, ptr noundef %41)
  %43 = load ptr, ptr %6, align 8, !tbaa !24
  %44 = load i64, ptr %5, align 8, !tbaa !26
  %45 = call i64 @limited_rand(ptr noundef %42, ptr noundef %43, i64 noundef %44)
  store i64 %45, ptr %3, align 8
  store i32 1, ptr %10, align 4
  br label %46

46:                                               ; preds = %39, %37
  call void @llvm.lifetime.end.p0(i64 8, ptr %6) #24
  %47 = load i64, ptr %3, align 8
  ret i64 %47
}