; Function Attrs: nounwind sspstrong uwtable
define dso_local i64 @rb_random_ulong_limited(i64 noundef %0, i64 noundef %1) local_unnamed_addr #0 {
  %3 = alloca i64, align 8
  %4 = tail call fastcc ptr @try_get_rnd(i64 noundef %0)
  %.not = icmp eq ptr %4, null
  br i1 %.not, label %5, label %29

5:                                                ; preds = %2
  call void @llvm.lifetime.start.p0(i64 8, ptr nonnull %3) #23
  %6 = add i64 %1, 1
  %7 = icmp ult i64 %6, 4611686018427387904
  br i1 %7, label %8, label %11

8:                                                ; preds = %5
  %9 = shl nuw nsw i64 %6, 1
  %10 = or disjoint i64 %9, 1
  br label %ulong_to_num_plus_1.exit

11:                                               ; preds = %5
  %12 = tail call i64 @rb_ull2inum(i64 noundef %6) #23
  br label %ulong_to_num_plus_1.exit

ulong_to_num_plus_1.exit:                         ; preds = %8, %11
  %.0.i.i = phi i64 [ %10, %8 ], [ %12, %11 ]
  store i64 %.0.i.i, ptr %3, align 8, !tbaa !43
  %13 = load i64, ptr @id_rand, align 8, !tbaa !43
  %14 = call i64 @rb_funcallv_public(i64 noundef %0, i64 noundef %13, i32 noundef 1, ptr noundef nonnull %3) #23
  %15 = call i64 @rb_to_int(i64 noundef %14) #23
  %16 = and i64 %15, 1
  %.not.i = icmp eq i64 %16, 0
  br i1 %.not.i, label %19, label %17

17:                                               ; preds = %ulong_to_num_plus_1.exit
  %18 = ashr i64 %15, 1
  br label %rb_num2ulong_inline.exit

19:                                               ; preds = %ulong_to_num_plus_1.exit
  %20 = call i64 @rb_num2ulong(i64 noundef %15) #23
  br label %rb_num2ulong_inline.exit

rb_num2ulong_inline.exit:                         ; preds = %17, %19
  %.0.i = phi i64 [ %18, %17 ], [ %20, %19 ]
  %21 = call i32 @rb_num_negative_p(i64 noundef %15) #23
  %.not17 = icmp eq i32 %21, 0
  br i1 %.not17, label %24, label %22

22:                                               ; preds = %rb_num2ulong_inline.exit
  %23 = load i64, ptr @rb_eRangeError, align 8, !tbaa !43
  call void (i64, ptr, ...) @rb_raise(i64 noundef %23, ptr noundef nonnull @.str.3, i64 noundef %.0.i) #25
  unreachable

24:                                               ; preds = %rb_num2ulong_inline.exit
  %25 = icmp ugt i64 %.0.i, %1
  br i1 %25, label %26, label %28

26:                                               ; preds = %24
  %27 = load i64, ptr @rb_eRangeError, align 8, !tbaa !43
  call void (i64, ptr, ...) @rb_raise(i64 noundef %27, ptr noundef nonnull @.str.4, i64 noundef %.0.i) #25
  unreachable

28:                                               ; preds = %24
  call void @llvm.lifetime.end.p0(i64 8, ptr nonnull %3) #23
  br label %limited_rand.exit

29:                                               ; preds = %2
  %30 = load ptr, ptr @default_rand_key, align 8, !tbaa !7
  %31 = tail call ptr @rb_ractor_local_storage_ptr(ptr noundef %30) #23
  %32 = icmp eq ptr %31, null
  br i1 %32, label %33, label %default_rand.exit.i

33:                                               ; preds = %29
  %34 = tail call noalias nonnull dereferenceable(2520) ptr @ruby_xcalloc(i64 noundef 1, i64 noundef 2520) #24
  %35 = load ptr, ptr @default_rand_key, align 8, !tbaa !7
  tail call void @rb_ractor_local_storage_ptr_set(ptr noundef %35, ptr noundef nonnull %34) #23
  br label %default_rand.exit.i

default_rand.exit.i:                              ; preds = %33, %29
  %.0.i.i18 = phi ptr [ %34, %33 ], [ %31, %29 ]
  %36 = icmp eq ptr %4, %.0.i.i18
  br i1 %36, label %try_rand_if.exit, label %37

37:                                               ; preds = %default_rand.exit.i
  %38 = inttoptr i64 %0 to ptr
  %39 = getelementptr inbounds nuw i8, ptr %38, i64 16
  %40 = load ptr, ptr %39, align 8, !tbaa !31
  %41 = getelementptr inbounds nuw i8, ptr %40, i64 56
  %42 = load ptr, ptr %41, align 8, !tbaa !35
  br label %try_rand_if.exit

try_rand_if.exit:                                 ; preds = %default_rand.exit.i, %37
  %.0.i19 = phi ptr [ %42, %37 ], [ @random_mt_if, %default_rand.exit.i ]
  %.not.i20 = icmp eq i64 %1, 0
  br i1 %.not.i20, label %limited_rand.exit, label %43

43:                                               ; preds = %try_rand_if.exit
  %44 = lshr i64 %1, 1
  %45 = or i64 %44, %1
  %46 = lshr i64 %45, 2
  %47 = or i64 %46, %45
  %48 = lshr i64 %47, 4
  %49 = or i64 %48, %47
  %50 = lshr i64 %49, 8
  %51 = or i64 %50, %49
  %52 = lshr i64 %51, 16
  %53 = or i64 %52, %51
  %54 = lshr i64 %53, 32
  %55 = or i64 %54, %53
  %56 = icmp ugt i64 %1, 4294967295
  %57 = getelementptr inbounds nuw i8, ptr %.0.i19, i64 32
  br i1 %56, label %.loopexit28.i, label %.preheader29.i

.loopexit28.i:                                    ; preds = %43, %.loopexit28.i.backedge
  %indvars.iv.i = phi i64 [ %indvars.iv.i.be, %.loopexit28.i.backedge ], [ 1, %43 ]
  %.02332.i = phi i64 [ %.02332.i.be, %.loopexit28.i.backedge ], [ 0, %43 ]
  %58 = shl nuw nsw i64 %indvars.iv.i, 5
  %59 = shl i64 4294967295, %58
  %60 = and i64 %59, %55
  %.not27.i = icmp eq i64 %60, 0
  br i1 %.not27.i, label %69, label %61

61:                                               ; preds = %.loopexit28.i
  %62 = load ptr, ptr %57, align 8, !tbaa !39
  %63 = tail call i32 %62(ptr noundef nonnull %4) #23
  %64 = zext i32 %63 to i64
  %65 = shl nuw i64 %64, %58
  %66 = or i64 %65, %.02332.i
  %67 = and i64 %66, %55
  %68 = icmp ult i64 %1, %67
  br i1 %68, label %.loopexit28.i.backedge, label %69

69:                                               ; preds = %61, %.loopexit28.i
  %.1.i = phi i64 [ %67, %61 ], [ %.02332.i, %.loopexit28.i ]
  %indvars.iv.next.i = add nsw i64 %indvars.iv.i, -1
  %.not36.i = icmp eq i64 %indvars.iv.i, 0
  br i1 %.not36.i, label %limited_rand.exit, label %.loopexit28.i.backedge

.loopexit28.i.backedge:                           ; preds = %69, %61
  %indvars.iv.i.be = phi i64 [ %indvars.iv.next.i, %69 ], [ 1, %61 ]
  %.02332.i.be = phi i64 [ %.1.i, %69 ], [ 0, %61 ]
  br label %.loopexit28.i, !llvm.loop !29

.preheader29.i:                                   ; preds = %43, %.preheader29.i
  %70 = load ptr, ptr %57, align 8, !tbaa !39
  %71 = tail call i32 %70(ptr noundef nonnull %4) #23
  %72 = zext i32 %71 to i64
  %73 = and i64 %55, %72
  %74 = icmp samesign ult i64 %1, %73
  br i1 %74, label %.preheader29.i, label %limited_rand.exit, !llvm.loop !30

limited_rand.exit:                                ; preds = %.preheader29.i, %69, %try_rand_if.exit, %28
  %.0 = phi i64 [ %.0.i, %28 ], [ 0, %try_rand_if.exit ], [ %.1.i, %69 ], [ %73, %.preheader29.i ]
  ret i64 %.0
}